target datalayout = "e-m:e-p270:32:32-p271:32:32-p272:64:64-i64:64-i128:128-f80:128-n8:16:32:64-S128"
target triple = "x86_64-pc-linux-gnu"

%struct.FilterParams = type { i32, double, ptr, ptr, ptr }

; Function Attrs: nounwind uwtable
define internal void @blend_reflect_32bit(ptr noundef %0, i64 noundef %1, ptr noundef %2, i64 noundef %3, ptr noundef %4, i64 noundef %5, i64 noundef %6, i64 noundef %7, ptr noundef %8, ptr noundef %9) #0 {
  %11 = alloca ptr, align 8
  %12 = alloca i64, align 8
  %13 = alloca ptr, align 8
  %14 = alloca i64, align 8
  %15 = alloca ptr, align 8
  %16 = alloca i64, align 8
  %17 = alloca i64, align 8
  %18 = alloca i64, align 8
  %19 = alloca ptr, align 8
  %20 = alloca ptr, align 8
  %21 = alloca ptr, align 8
  %22 = alloca ptr, align 8
  %23 = alloca ptr, align 8
  %24 = alloca float, align 4
  %25 = alloca i32, align 4
  %26 = alloca i32, align 4
  %27 = alloca i32, align 4
  store ptr %0, ptr %11, align 8, !tbaa !46
  store i64 %1, ptr %12, align 8, !tbaa !88
  store ptr %2, ptr %13, align 8, !tbaa !46
  store i64 %3, ptr %14, align 8, !tbaa !88
  store ptr %4, ptr %15, align 8, !tbaa !46
  store i64 %5, ptr %16, align 8, !tbaa !88
  store i64 %6, ptr %17, align 8, !tbaa !88
  store i64 %7, ptr %18, align 8, !tbaa !88
  store ptr %8, ptr %19, align 8, !tbaa !77
  store ptr %9, ptr %20, align 8, !tbaa !89
  call void @llvm.lifetime.start.p0(i64 8, ptr %21) #12
  %28 = load ptr, ptr %11, align 8, !tbaa !46
  store ptr %28, ptr %21, align 8, !tbaa !91
  call void @llvm.lifetime.start.p0(i64 8, ptr %22) #12
  %29 = load ptr, ptr %13, align 8, !tbaa !46
  store ptr %29, ptr %22, align 8, !tbaa !91
  call void @llvm.lifetime.start.p0(i64 8, ptr %23) #12
  %30 = load ptr, ptr %15, align 8, !tbaa !46
  store ptr %30, ptr %23, align 8, !tbaa !91
  call void @llvm.lifetime.start.p0(i64 4, ptr %24) #12
  %31 = load ptr, ptr %19, align 8, !tbaa !77
  %32 = getelementptr inbounds nuw %struct.FilterParams, ptr %31, i32 0, i32 1
  %33 = load double, ptr %32, align 8, !tbaa !82
  %34 = fptrunc nsz double %33 to float
  store float %34, ptr %24, align 4, !tbaa !99
  %35 = load i64, ptr %16, align 8, !tbaa !88
  %36 = udiv i64 %35, 4
  store i64 %36, ptr %16, align 8, !tbaa !88
  %37 = load i64, ptr %12, align 8, !tbaa !88
  %38 = udiv i64 %37, 4
  store i64 %38, ptr %12, align 8, !tbaa !88
  %39 = load i64, ptr %14, align 8, !tbaa !88
  %40 = udiv i64 %39, 4
  store i64 %40, ptr %14, align 8, !tbaa !88
  call void @llvm.lifetime.start.p0(i64 4, ptr %25) #12
  store i32 0, ptr %25, align 4, !tbaa !37
  br label %41

41:                                               ; preds = %141, %10
  %42 = load i32, ptr %25, align 4, !tbaa !37
  %43 = sext i32 %42 to i64
  %44 = load i64, ptr %18, align 8, !tbaa !88
  %45 = icmp slt i64 %43, %44
  br i1 %45, label %47, label %46

46:                                               ; preds = %41
  store i32 2, ptr %26, align 4
  call void @llvm.lifetime.end.p0(i64 4, ptr %25) #12
  br label %144

47:                                               ; preds = %41
  call void @llvm.lifetime.start.p0(i64 4, ptr %27) #12
  store i32 0, ptr %27, align 4, !tbaa !37
  br label %48

48:                                               ; preds = %128, %47
  %49 = load i32, ptr %27, align 4, !tbaa !37
  %50 = sext i32 %49 to i64
  %51 = load i64, ptr %17, align 8, !tbaa !88
  %52 = icmp slt i64 %50, %51
  br i1 %52, label %54, label %53

53:                                               ; preds = %48
  store i32 5, ptr %26, align 4
  call void @llvm.lifetime.end.p0(i64 4, ptr %27) #12
  br label %131

54:                                               ; preds = %48
  %55 = load ptr, ptr %21, align 8, !tbaa !91
  %56 = load i32, ptr %27, align 4, !tbaa !37
  %57 = sext i32 %56 to i64
  %58 = getelementptr inbounds float, ptr %55, i64 %57
  %59 = load float, ptr %58, align 4, !tbaa !99
  %60 = load ptr, ptr %22, align 8, !tbaa !91
  %61 = load i32, ptr %27, align 4, !tbaa !37
  %62 = sext i32 %61 to i64
  %63 = getelementptr inbounds float, ptr %60, i64 %62
  %64 = load float, ptr %63, align 4, !tbaa !99
  %65 = fcmp nsz oeq float %64, 1.000000e+00
  br i1 %65, label %66, label %72

66:                                               ; preds = %54
  %67 = load ptr, ptr %22, align 8, !tbaa !91
  %68 = load i32, ptr %27, align 4, !tbaa !37
  %69 = sext i32 %68 to i64
  %70 = getelementptr inbounds float, ptr %67, i64 %69
  %71 = load float, ptr %70, align 4, !tbaa !99
  br label %114

72:                                               ; preds = %54
  %73 = load ptr, ptr %21, align 8, !tbaa !91
  %74 = load i32, ptr %27, align 4, !tbaa !37
  %75 = sext i32 %74 to i64
  %76 = getelementptr inbounds float, ptr %73, i64 %75
  %77 = load float, ptr %76, align 4, !tbaa !99
  %78 = load ptr, ptr %21, align 8, !tbaa !91
  %79 = load i32, ptr %27, align 4, !tbaa !37
  %80 = sext i32 %79 to i64
  %81 = getelementptr inbounds float, ptr %78, i64 %80
  %82 = load float, ptr %81, align 4, !tbaa !99
  %83 = fmul nsz float %77, %82
  %84 = load ptr, ptr %22, align 8, !tbaa !91
  %85 = load i32, ptr %27, align 4, !tbaa !37
  %86 = sext i32 %85 to i64
  %87 = getelementptr inbounds float, ptr %84, i64 %86
  %88 = load float, ptr %87, align 4, !tbaa !99
  %89 = fsub nsz float 1.000000e+00, %88
  %90 = fdiv nsz float %83, %89
  %91 = fcmp nsz ogt float 1.000000e+00, %90
  br i1 %91, label %92, label %111

92:                                               ; preds = %72
  %93 = load ptr, ptr %21, align 8, !tbaa !91
  %94 = load i32, ptr %27, align 4, !tbaa !37
  %95 = sext i32 %94 to i64
  %96 = getelementptr inbounds float, ptr %93, i64 %95
  %97 = load float, ptr %96, align 4, !tbaa !99
  %98 = load ptr, ptr %21, align 8, !tbaa !91
  %99 = load i32, ptr %27, align 4, !tbaa !37
  %100 = sext i32 %99 to i64
  %101 = getelementptr inbounds float, ptr %98, i64 %100
  %102 = load float, ptr %101, align 4, !tbaa !99
  %103 = fmul nsz float %97, %102
  %104 = load ptr, ptr %22, align 8, !tbaa !91
  %105 = load i32, ptr %27, align 4, !tbaa !37
  %106 = sext i32 %105 to i64
  %107 = getelementptr inbounds float, ptr %104, i64 %106
  %108 = load float, ptr %107, align 4, !tbaa !99
  %109 = fsub nsz float 1.000000e+00, %108
  %110 = fdiv nsz float %103, %109
  br label %112

111:                                              ; preds = %72
  br label %112

112:                                              ; preds = %111, %92
  %113 = phi nsz float [ %110, %92 ], [ 1.000000e+00, %111 ]
  br label %114

114:                                              ; preds = %112, %66
  %115 = phi nsz float [ %71, %66 ], [ %113, %112 ]
  %116 = load ptr, ptr %21, align 8, !tbaa !91
  %117 = load i32, ptr %27, align 4, !tbaa !37
  %118 = sext i32 %117 to i64
  %119 = getelementptr inbounds float, ptr %116, i64 %118
  %120 = load float, ptr %119, align 4, !tbaa !99
  %121 = fsub nsz float %115, %120
  %122 = load float, ptr %24, align 4, !tbaa !99
  %123 = call nsz float @llvm.fmuladd.f32(float %121, float %122, float %59)
  %124 = load ptr, ptr %23, align 8, !tbaa !91
  %125 = load i32, ptr %27, align 4, !tbaa !37
  %126 = sext i32 %125 to i64
  %127 = getelementptr inbounds float, ptr %124, i64 %126
  store float %123, ptr %127, align 4, !tbaa !99
  br label %128

128:                                              ; preds = %114
  %129 = load i32, ptr %27, align 4, !tbaa !37
  %130 = add nsw i32 %129, 1
  store i32 %130, ptr %27, align 4, !tbaa !37
  br label %48, !llvm.loop !638

131:                                              ; preds = %53
  %132 = load i64, ptr %16, align 8, !tbaa !88
  %133 = load ptr, ptr %23, align 8, !tbaa !91
  %134 = getelementptr inbounds float, ptr %133, i64 %132
  store ptr %134, ptr %23, align 8, !tbaa !91
  %135 = load i64, ptr %12, align 8, !tbaa !88
  %136 = load ptr, ptr %21, align 8, !tbaa !91
  %137 = getelementptr inbounds float, ptr %136, i64 %135
  store ptr %137, ptr %21, align 8, !tbaa !91
  %138 = load i64, ptr %14, align 8, !tbaa !88
  %139 = load ptr, ptr %22, align 8, !tbaa !91
  %140 = getelementptr inbounds float, ptr %139, i64 %138
  store ptr %140, ptr %22, align 8, !tbaa !91
  br label %141

141:                                              ; preds = %131
  %142 = load i32, ptr %25, align 4, !tbaa !37
  %143 = add nsw i32 %142, 1
  store i32 %143, ptr %25, align 4, !tbaa !37
  br label %41, !llvm.loop !639

144:                                              ; preds = %46
  call void @llvm.lifetime.end.p0(i64 4, ptr %24) #12
  call void @llvm.lifetime.end.p0(i64 8, ptr %23) #12
  call void @llvm.lifetime.end.p0(i64 8, ptr %22) #12
  call void @llvm.lifetime.end.p0(i64 8, ptr %21) #12
  ret void
}