; Function Attrs: nofree norecurse nosync nounwind memory(argmem: readwrite) uwtable
define internal void @blend_reflect_32bit(ptr noundef readonly captures(none) %0, i64 noundef %1, ptr noundef readonly captures(none) %2, i64 noundef %3, ptr noundef writeonly captures(none) %4, i64 noundef %5, i64 noundef %6, i64 noundef %7, ptr noundef readonly captures(none) %8, ptr readnone captures(none) %9) #6 {
  %11 = getelementptr inbounds nuw i8, ptr %8, i64 8
  %12 = load double, ptr %11, align 8, !tbaa !70
  %13 = fptrunc nsz double %12 to float
  %14 = lshr i64 %5, 2
  %15 = lshr i64 %1, 2
  %16 = lshr i64 %3, 2
  %17 = icmp sgt i64 %7, 0
  %18 = icmp sgt i64 %6, 0
  %or.cond = and i1 %17, %18
  br i1 %or.cond, label %.preheader.us, label %._crit_edge53

.preheader.us:                                    ; preds = %10, %._crit_edge.us
  %indvars.iv57 = phi i64 [ %indvars.iv.next58, %._crit_edge.us ], [ 0, %10 ]
  %.04251.us = phi ptr [ %36, %._crit_edge.us ], [ %4, %10 ]
  %.04350.us = phi ptr [ %38, %._crit_edge.us ], [ %2, %10 ]
  %.04449.us = phi ptr [ %37, %._crit_edge.us ], [ %0, %10 ]
  br label %19

19:                                               ; preds = %.preheader.us, %31
  %indvars.iv = phi i64 [ 0, %.preheader.us ], [ %indvars.iv.next, %31 ]
  %20 = getelementptr inbounds nuw float, ptr %.04449.us, i64 %indvars.iv
  %21 = load float, ptr %20, align 4, !tbaa !81
  %22 = getelementptr inbounds nuw float, ptr %.04350.us, i64 %indvars.iv
  %23 = load float, ptr %22, align 4, !tbaa !81
  %24 = fcmp nsz oeq float %23, 1.000000e+00
  br i1 %24, label %31, label %25

25:                                               ; preds = %19
  %26 = fmul nsz float %21, %21
  %27 = fsub nsz float 1.000000e+00, %23
  %28 = fdiv nsz float %26, %27
  %29 = fcmp nsz olt float %28, 1.000000e+00
  br i1 %29, label %30, label %31

30:                                               ; preds = %25
  br label %31

31:                                               ; preds = %30, %25, %19
  %32 = phi nsz float [ %28, %30 ], [ 1.000000e+00, %25 ], [ 1.000000e+00, %19 ]
  %33 = fsub nsz float %32, %21
  %34 = tail call nsz float @llvm.fmuladd.f32(float %33, float %13, float %21)
  %35 = getelementptr inbounds nuw float, ptr %.04251.us, i64 %indvars.iv
  store float %34, ptr %35, align 4, !tbaa !81
  %indvars.iv.next = add nuw nsw i64 %indvars.iv, 1
  %exitcond.not = icmp eq i64 %indvars.iv.next, %6
  br i1 %exitcond.not, label %._crit_edge.us, label %19, !llvm.loop !618

._crit_edge.us:                                   ; preds = %31
  %36 = getelementptr inbounds nuw float, ptr %.04251.us, i64 %14
  %37 = getelementptr inbounds nuw float, ptr %.04449.us, i64 %15
  %38 = getelementptr inbounds nuw float, ptr %.04350.us, i64 %16
  %indvars.iv.next58 = add nuw nsw i64 %indvars.iv57, 1
  %exitcond60.not = icmp eq i64 %indvars.iv.next58, %7
  br i1 %exitcond60.not, label %._crit_edge53, label %.preheader.us, !llvm.loop !619

._crit_edge53:                                    ; preds = %._crit_edge.us, %10
  ret void
}